; Function Attrs: nounwind uwtable
define i32 @png_get_x_offset_inches_fixed(ptr noalias noundef %0, ptr noalias noundef readonly %1) local_unnamed_addr #1 {
  %3 = icmp ne ptr %0, null
  %4 = icmp ne ptr %1, null
  %or.cond.i = and i1 %3, %4
  br i1 %or.cond.i, label %5, label %png_get_x_offset_microns.exit

5:                                                ; preds = %2
  %6 = getelementptr inbounds i8, ptr %1, i64 8
  %7 = load i32, ptr %6, align 8, !alias.scope !19, !noalias !22
  %8 = and i32 %7, 256
  %.not.i = icmp eq i32 %8, 0
  br i1 %.not.i, label %png_get_x_offset_microns.exit, label %9

9:                                                ; preds = %5
  %10 = getelementptr inbounds i8, ptr %1, i64 220
  %11 = load i8, ptr %10, align 4, !alias.scope !19, !noalias !22
  %12 = icmp eq i8 %11, 1
  br i1 %12, label %13, label %png_get_x_offset_microns.exit

13:                                               ; preds = %9
  %14 = getelementptr inbounds i8, ptr %1, i64 212
  %15 = load i32, ptr %14, align 4, !alias.scope !19, !noalias !22
  br label %png_get_x_offset_microns.exit

png_get_x_offset_microns.exit:                    ; preds = %2, %5, %9, %13
  %.0.i = phi i32 [ %15, %13 ], [ 0, %9 ], [ 0, %5 ], [ 0, %2 ]
  %16 = tail call i32 @png_muldiv_warn(ptr noundef %0, i32 noundef %.0.i, i32 noundef 500, i32 noundef 127) #10
  ret i32 %16
}